target datalayout = "e-m:e-p270:32:32-p271:32:32-p272:64:64-i64:64-i128:128-f80:128-n8:16:32:64-S128"
target triple = "x86_64-unknown-linux-gnu"

%"struct.rocksdb::lru_cache::LRUHandle" = type { ptr, ptr, ptr, ptr, ptr, i64, i64, i32, i32, i8, i8, [1 x i8] }
%"class.rocksdb::Slice" = type { ptr, i64 }
%"class.rocksdb::CacheShardBase" = type { i32 }

; Function Attrs: mustprogress nounwind uwtable
define linkonce_odr noundef i64 @_ZNK7rocksdb9lru_cache9LRUHandle15CalcuMetaChargeENS_25CacheMetadataChargePolicyE(ptr noundef nonnull align 8 dereferenceable(72) %this, i32 noundef %metadata_charge_policy) #4 comdat align 2 {
entry:
  %retval = alloca i64, align 8
  %this.addr = alloca ptr, align 8
  %metadata_charge_policy.addr = alloca i32, align 4
  store ptr %this, ptr %this.addr, align 8
  store i32 %metadata_charge_policy, ptr %metadata_charge_policy.addr, align 4
  %this1 = load ptr, ptr %this.addr, align 8
  %0 = load i32, ptr %metadata_charge_policy.addr, align 4
  %cmp = icmp ne i32 %0, 1
  br i1 %cmp, label %if.then, label %if.else

if.then:                                          ; preds = %entry
  store i64 0, ptr %retval, align 8
  br label %return

if.else:                                          ; preds = %entry
  %call = call i64 @malloc_usable_size(ptr noundef %this1) #15
  store i64 %call, ptr %retval, align 8
  br label %return

return:                                           ; preds = %if.else, %if.then
  %1 = load i64, ptr %retval, align 8
  ret i64 %1
}

; Function Attrs: mustprogress uwtable
define linkonce_odr void @_ZN7rocksdb9lru_cache9LRUHandle15CalcTotalChargeEmNS_25CacheMetadataChargePolicyE(ptr noundef nonnull align 8 dereferenceable(72) %this, i64 noundef %charge, i32 noundef %metadata_charge_policy) #0 comdat align 2 {
entry:
  %this.addr = alloca ptr, align 8
  %charge.addr = alloca i64, align 8
  %metadata_charge_policy.addr = alloca i32, align 4
  store ptr %this, ptr %this.addr, align 8
  store i64 %charge, ptr %charge.addr, align 8
  store i32 %metadata_charge_policy, ptr %metadata_charge_policy.addr, align 4
  %this1 = load ptr, ptr %this.addr, align 8
  %0 = load i64, ptr %charge.addr, align 8
  %1 = load i32, ptr %metadata_charge_policy.addr, align 4
  %call = call noundef i64 @_ZNK7rocksdb9lru_cache9LRUHandle15CalcuMetaChargeENS_25CacheMetadataChargePolicyE(ptr noundef nonnull align 8 dereferenceable(72) %this1, i32 noundef %1)
  %add = add i64 %0, %call
  %total_charge = getelementptr inbounds %"struct.rocksdb::lru_cache::LRUHandle", ptr %this1, i32 0, i32 5
  store i64 %add, ptr %total_charge, align 8
  ret void
}

; Function Attrs: mustprogress nounwind uwtable
define linkonce_odr noundef ptr @_ZNK7rocksdb5Slice4dataEv(ptr noundef nonnull align 8 dereferenceable(16) %this) #4 comdat align 2 {
entry:
  %this.addr = alloca ptr, align 8
  store ptr %this, ptr %this.addr, align 8
  %this1 = load ptr, ptr %this.addr, align 8
  %data_ = getelementptr inbounds %"class.rocksdb::Slice", ptr %this1, i32 0, i32 0
  %0 = load ptr, ptr %data_, align 8
  ret ptr %0
}

; Function Attrs: mustprogress nounwind uwtable
define linkonce_odr noundef i64 @_ZNK7rocksdb5Slice4sizeEv(ptr noundef nonnull align 8 dereferenceable(16) %this) #4 comdat align 2 {
entry:
  %this.addr = alloca ptr, align 8
  store ptr %this, ptr %this.addr, align 8
  %this1 = load ptr, ptr %this.addr, align 8
  %size_ = getelementptr inbounds %"class.rocksdb::Slice", ptr %this1, i32 0, i32 1
  %0 = load i64, ptr %size_, align 8
  ret i64 %0
}

; Function Attrs: mustprogress uwtable
define noundef ptr @_ZN7rocksdb9lru_cache13LRUCacheShard12CreateHandleERKNS_5SliceEjPvPKNS_5Cache15CacheItemHelperEm(ptr noundef nonnull align 64 dereferenceable(256) %this, ptr noundef nonnull align 8 dereferenceable(16) %key, i32 noundef %hash, ptr noundef %value, ptr noundef %helper, i64 noundef %charge) #0 align 2 {
entry:
  %this.addr = alloca ptr, align 8
  %key.addr = alloca ptr, align 8
  %hash.addr = alloca i32, align 4
  %value.addr = alloca ptr, align 8
  %helper.addr = alloca ptr, align 8
  %charge.addr = alloca i64, align 8
  %e = alloca ptr, align 8
  store ptr %this, ptr %this.addr, align 8
  store ptr %key, ptr %key.addr, align 8
  store i32 %hash, ptr %hash.addr, align 4
  store ptr %value, ptr %value.addr, align 8
  store ptr %helper, ptr %helper.addr, align 8
  store i64 %charge, ptr %charge.addr, align 8
  %this1 = load ptr, ptr %this.addr, align 8
  %0 = load ptr, ptr %key.addr, align 8
  %call = call noundef i64 @_ZNK7rocksdb5Slice4sizeEv(ptr noundef nonnull align 8 dereferenceable(16) %0)
  %add = add i64 71, %call
  %call2 = call noalias ptr @malloc(i64 noundef %add) #19
  store ptr %call2, ptr %e, align 8
  %1 = load ptr, ptr %value.addr, align 8
  %2 = load ptr, ptr %e, align 8
  %value3 = getelementptr inbounds %"struct.rocksdb::lru_cache::LRUHandle", ptr %2, i32 0, i32 0
  store ptr %1, ptr %value3, align 8
  %3 = load ptr, ptr %e, align 8
  %m_flags = getelementptr inbounds %"struct.rocksdb::lru_cache::LRUHandle", ptr %3, i32 0, i32 9
  store i8 0, ptr %m_flags, align 8
  %4 = load ptr, ptr %e, align 8
  %im_flags = getelementptr inbounds %"struct.rocksdb::lru_cache::LRUHandle", ptr %4, i32 0, i32 10
  store i8 0, ptr %im_flags, align 1
  %5 = load ptr, ptr %helper.addr, align 8
  %6 = load ptr, ptr %e, align 8
  %helper4 = getelementptr inbounds %"struct.rocksdb::lru_cache::LRUHandle", ptr %6, i32 0, i32 1
  store ptr %5, ptr %helper4, align 8
  %7 = load ptr, ptr %key.addr, align 8
  %call5 = call noundef i64 @_ZNK7rocksdb5Slice4sizeEv(ptr noundef nonnull align 8 dereferenceable(16) %7)
  %8 = load ptr, ptr %e, align 8
  %key_length = getelementptr inbounds %"struct.rocksdb::lru_cache::LRUHandle", ptr %8, i32 0, i32 6
  store i64 %call5, ptr %key_length, align 8
  %9 = load i32, ptr %hash.addr, align 4
  %10 = load ptr, ptr %e, align 8
  %hash6 = getelementptr inbounds %"struct.rocksdb::lru_cache::LRUHandle", ptr %10, i32 0, i32 7
  store i32 %9, ptr %hash6, align 8
  %11 = load ptr, ptr %e, align 8
  %refs = getelementptr inbounds %"struct.rocksdb::lru_cache::LRUHandle", ptr %11, i32 0, i32 8
  store i32 0, ptr %refs, align 4
  %12 = load ptr, ptr %e, align 8
  %prev = getelementptr inbounds %"struct.rocksdb::lru_cache::LRUHandle", ptr %12, i32 0, i32 4
  store ptr null, ptr %prev, align 8
  %13 = load ptr, ptr %e, align 8
  %next = getelementptr inbounds %"struct.rocksdb::lru_cache::LRUHandle", ptr %13, i32 0, i32 3
  store ptr null, ptr %next, align 8
  %14 = load ptr, ptr %e, align 8
  %key_data = getelementptr inbounds %"struct.rocksdb::lru_cache::LRUHandle", ptr %14, i32 0, i32 11
  %arraydecay = getelementptr inbounds [1 x i8], ptr %key_data, i64 0, i64 0
  %15 = load ptr, ptr %key.addr, align 8
  %call7 = call noundef ptr @_ZNK7rocksdb5Slice4dataEv(ptr noundef nonnull align 8 dereferenceable(16) %15)
  %16 = load ptr, ptr %key.addr, align 8
  %call8 = call noundef i64 @_ZNK7rocksdb5Slice4sizeEv(ptr noundef nonnull align 8 dereferenceable(16) %16)
  call void @llvm.memcpy.p0.p0.i64(ptr align 2 %arraydecay, ptr align 1 %call7, i64 %call8, i1 false)
  %17 = load ptr, ptr %e, align 8
  %18 = load i64, ptr %charge.addr, align 8
  %metadata_charge_policy_ = getelementptr inbounds %"class.rocksdb::CacheShardBase", ptr %this1, i32 0, i32 0
  %19 = load i32, ptr %metadata_charge_policy_, align 64
  call void @_ZN7rocksdb9lru_cache9LRUHandle15CalcTotalChargeEmNS_25CacheMetadataChargePolicyE(ptr noundef nonnull align 8 dereferenceable(72) %17, i64 noundef %18, i32 noundef %19)
  %20 = load ptr, ptr %e, align 8
  ret ptr %20
}