; Function Attrs: mustprogress nounwind uwtable
define noundef ptr @_ZN7rocksdb9lru_cache13LRUCacheShard12CreateHandleERKNS_5SliceEjPvPKNS_5Cache15CacheItemHelperEm(ptr nocapture noundef nonnull readonly align 64 dereferenceable(256) %this, ptr nocapture noundef nonnull readonly align 8 dereferenceable(16) %key, i32 noundef %hash, ptr noundef %value, ptr noundef %helper, i64 noundef %charge) local_unnamed_addr #3 align 2 {
entry:
  %size_.i = getelementptr inbounds i8, ptr %key, i64 8
  %0 = load i64, ptr %size_.i, align 8
  %add = add i64 %0, 71
  %call2 = tail call noalias ptr @malloc(i64 noundef %add) #29
  store ptr %value, ptr %call2, align 8
  %m_flags = getelementptr inbounds i8, ptr %call2, i64 64
  store i8 0, ptr %m_flags, align 8
  %im_flags = getelementptr inbounds i8, ptr %call2, i64 65
  store i8 0, ptr %im_flags, align 1
  %helper4 = getelementptr inbounds i8, ptr %call2, i64 8
  store ptr %helper, ptr %helper4, align 8
  %key_length = getelementptr inbounds i8, ptr %call2, i64 48
  store i64 %0, ptr %key_length, align 8
  %hash6 = getelementptr inbounds i8, ptr %call2, i64 56
  store i32 %hash, ptr %hash6, align 8
  %refs = getelementptr inbounds i8, ptr %call2, i64 60
  store i32 0, ptr %refs, align 4
  %next = getelementptr inbounds i8, ptr %call2, i64 24
  %key_data = getelementptr inbounds i8, ptr %call2, i64 66
  tail call void @llvm.memset.p0.i64(ptr noundef nonnull align 8 dereferenceable(16) %next, i8 0, i64 16, i1 false)
  %1 = load ptr, ptr %key, align 8
  tail call void @llvm.memcpy.p0.p0.i64(ptr nonnull align 2 %key_data, ptr align 1 %1, i64 %0, i1 false)
  %2 = load i32, ptr %this, align 64
  %cmp.not.i.i = icmp eq i32 %2, 1
  br i1 %cmp.not.i.i, label %if.else.i.i, label %_ZN7rocksdb9lru_cache9LRUHandle15CalcTotalChargeEmNS_25CacheMetadataChargePolicyE.exit

if.else.i.i:                                      ; preds = %entry
  %call.i.i = tail call i64 @malloc_usable_size(ptr noundef nonnull %call2) #25
  br label %_ZN7rocksdb9lru_cache9LRUHandle15CalcTotalChargeEmNS_25CacheMetadataChargePolicyE.exit

_ZN7rocksdb9lru_cache9LRUHandle15CalcTotalChargeEmNS_25CacheMetadataChargePolicyE.exit: ; preds = %entry, %if.else.i.i
  %retval.0.i.i = phi i64 [ %call.i.i, %if.else.i.i ], [ 0, %entry ]
  %add.i = add i64 %retval.0.i.i, %charge
  %total_charge.i = getelementptr inbounds i8, ptr %call2, i64 40
  store i64 %add.i, ptr %total_charge.i, align 8
  ret ptr %call2
}